target datalayout = "e-m:e-p270:32:32-p271:32:32-p272:64:64-i64:64-i128:128-f80:128-n8:16:32:64-S128"
target triple = "x86_64-pc-linux-gnu"

; Function Attrs: null_pointer_is_valid sspstrong uwtable
define internal i32 @dissect_pana(ptr noundef %0, ptr noundef %1, ptr noundef %2, ptr noundef %3) #0 {
  %5 = alloca i32, align 4
  %6 = alloca ptr, align 8
  %7 = alloca ptr, align 8
  %8 = alloca ptr, align 8
  %9 = alloca ptr, align 8
  %10 = alloca i16, align 2
  %11 = alloca i32, align 4
  %12 = alloca i16, align 2
  %13 = alloca i32, align 4
  %14 = alloca i16, align 2
  %15 = alloca i32, align 4
  %16 = alloca i32, align 4
  %17 = alloca i32, align 4
  %18 = alloca i16, align 2
  %19 = alloca i32, align 4
  %20 = alloca i16, align 2
  store ptr %0, ptr %6, align 8
  store ptr %1, ptr %7, align 8
  store ptr %2, ptr %8, align 8
  store ptr %3, ptr %9, align 8
  call void @llvm.lifetime.start.p0(i64 2, ptr %10) #9
  call void @llvm.lifetime.start.p0(i64 4, ptr %11) #9
  call void @llvm.lifetime.start.p0(i64 2, ptr %12) #9
  call void @llvm.lifetime.start.p0(i64 4, ptr %13) #9
  call void @llvm.lifetime.start.p0(i64 2, ptr %14) #9
  call void @llvm.lifetime.start.p0(i64 4, ptr %15) #9
  %21 = load ptr, ptr %6, align 8
  %22 = call i32 @tvb_captured_length(ptr noundef %21)
  store i32 %22, ptr %13, align 4
  %23 = load i32, ptr %13, align 4
  %24 = icmp ult i32 %23, 12
  br i1 %24, label %25, label %26

25:                                               ; preds = %4
  store i32 0, ptr %5, align 4
  store i32 1, ptr %16, align 4
  br label %131

26:                                               ; preds = %4
  %27 = load ptr, ptr %6, align 8
  %28 = call zeroext i16 @tvb_get_ntohs(ptr noundef %27, i32 noundef 2)
  %29 = zext i16 %28 to i32
  store i32 %29, ptr %11, align 4
  %30 = load i32, ptr %11, align 4
  %31 = icmp ult i32 %30, 16
  br i1 %31, label %32, label %33

32:                                               ; preds = %26
  store i32 0, ptr %5, align 4
  store i32 1, ptr %16, align 4
  br label %131

33:                                               ; preds = %26
  %34 = load i32, ptr %11, align 4
  %35 = load ptr, ptr %6, align 8
  %36 = call i32 @tvb_reported_length(ptr noundef %35)
  %37 = icmp ne i32 %34, %36
  br i1 %37, label %38, label %39

38:                                               ; preds = %33
  store i32 0, ptr %5, align 4
  store i32 1, ptr %16, align 4
  br label %131

39:                                               ; preds = %33
  %40 = load ptr, ptr %6, align 8
  %41 = call zeroext i16 @tvb_get_ntohs(ptr noundef %40, i32 noundef 0)
  store i16 %41, ptr %10, align 2
  %42 = load i16, ptr %10, align 2
  %43 = zext i16 %42 to i32
  %44 = icmp ne i32 %43, 0
  br i1 %44, label %45, label %46

45:                                               ; preds = %39
  store i32 0, ptr %5, align 4
  store i32 1, ptr %16, align 4
  br label %131

46:                                               ; preds = %39
  %47 = load ptr, ptr %6, align 8
  %48 = call zeroext i16 @tvb_get_ntohs(ptr noundef %47, i32 noundef 4)
  store i16 %48, ptr %12, align 2
  %49 = load i16, ptr %12, align 2
  %50 = zext i16 %49 to i32
  %51 = and i32 %50, 1023
  %52 = icmp ne i32 %51, 0
  br i1 %52, label %53, label %54

53:                                               ; preds = %46
  store i32 0, ptr %5, align 4
  store i32 1, ptr %16, align 4
  br label %131

54:                                               ; preds = %46
  %55 = load ptr, ptr %6, align 8
  %56 = call zeroext i16 @tvb_get_ntohs(ptr noundef %55, i32 noundef 6)
  store i16 %56, ptr %14, align 2
  %57 = load i16, ptr %14, align 2
  %58 = zext i16 %57 to i32
  %59 = icmp sgt i32 %58, 5
  br i1 %59, label %64, label %60

60:                                               ; preds = %54
  %61 = load i16, ptr %14, align 2
  %62 = zext i16 %61 to i32
  %63 = icmp eq i32 %62, 0
  br i1 %63, label %64, label %65

64:                                               ; preds = %60, %54
  store i32 0, ptr %5, align 4
  store i32 1, ptr %16, align 4
  br label %131

65:                                               ; preds = %60
  %66 = load i32, ptr %11, align 4
  %67 = sub i32 %66, 16
  store i32 %67, ptr %15, align 4
  %68 = load i32, ptr %15, align 4
  %69 = icmp ne i32 %68, 0
  br i1 %69, label %70, label %125

70:                                               ; preds = %65
  call void @llvm.lifetime.start.p0(i64 4, ptr %17) #9
  call void @llvm.lifetime.start.p0(i64 2, ptr %18) #9
  call void @llvm.lifetime.start.p0(i64 4, ptr %19) #9
  call void @llvm.lifetime.start.p0(i64 2, ptr %20) #9
  %71 = load i32, ptr %15, align 4
  %72 = icmp ult i32 %71, 8
  br i1 %72, label %73, label %74

73:                                               ; preds = %70
  store i32 0, ptr %5, align 4
  store i32 1, ptr %16, align 4
  br label %122

74:                                               ; preds = %70
  store i32 16, ptr %17, align 4
  %75 = load i32, ptr %17, align 4
  %76 = add i32 %75, 8
  %77 = load i32, ptr %13, align 4
  %78 = icmp ugt i32 %76, %77
  br i1 %78, label %79, label %80

79:                                               ; preds = %74
  store i32 0, ptr %5, align 4
  store i32 1, ptr %16, align 4
  br label %122

80:                                               ; preds = %74
  %81 = load ptr, ptr %6, align 8
  %82 = load i32, ptr %17, align 4
  %83 = call zeroext i16 @tvb_get_ntohs(ptr noundef %81, i32 noundef %82)
  store i16 %83, ptr %18, align 2
  %84 = load i16, ptr %18, align 2
  %85 = zext i16 %84 to i32
  %86 = icmp eq i32 %85, 0
  br i1 %86, label %91, label %87

87:                                               ; preds = %80
  %88 = load i16, ptr %18, align 2
  %89 = zext i16 %88 to i32
  %90 = icmp sgt i32 %89, 13
  br i1 %90, label %91, label %92

91:                                               ; preds = %87, %80
  store i32 0, ptr %5, align 4
  store i32 1, ptr %16, align 4
  br label %122

92:                                               ; preds = %87
  %93 = load ptr, ptr %6, align 8
  %94 = load i32, ptr %17, align 4
  %95 = add i32 %94, 2
  %96 = call zeroext i16 @tvb_get_ntohs(ptr noundef %93, i32 noundef %95)
  store i16 %96, ptr %20, align 2
  %97 = load i16, ptr %20, align 2
  %98 = zext i16 %97 to i32
  %99 = and i32 %98, 32767
  %100 = icmp ne i32 %99, 0
  br i1 %100, label %101, label %102

101:                                              ; preds = %92
  store i32 0, ptr %5, align 4
  store i32 1, ptr %16, align 4
  br label %122

102:                                              ; preds = %92
  %103 = load i16, ptr %20, align 2
  %104 = zext i16 %103 to i32
  %105 = and i32 %104, 32768
  %106 = icmp ne i32 %105, 0
  br i1 %106, label %107, label %108

107:                                              ; preds = %102
  store i32 12, ptr %19, align 4
  br label %109

108:                                              ; preds = %102
  store i32 8, ptr %19, align 4
  br label %109

109:                                              ; preds = %108, %107
  %110 = load ptr, ptr %6, align 8
  %111 = load i32, ptr %17, align 4
  %112 = add i32 %111, 4
  %113 = call zeroext i16 @tvb_get_ntohs(ptr noundef %110, i32 noundef %112)
  %114 = zext i16 %113 to i32
  %115 = load i32, ptr %19, align 4
  %116 = add i32 %115, %114
  store i32 %116, ptr %19, align 4
  %117 = load i32, ptr %19, align 4
  %118 = load i32, ptr %15, align 4
  %119 = icmp ugt i32 %117, %118
  br i1 %119, label %120, label %121

120:                                              ; preds = %109
  store i32 0, ptr %5, align 4
  store i32 1, ptr %16, align 4
  br label %122

121:                                              ; preds = %109
  store i32 0, ptr %16, align 4
  br label %122

122:                                              ; preds = %121, %120, %101, %91, %79, %73
  call void @llvm.lifetime.end.p0(i64 2, ptr %20) #9
  call void @llvm.lifetime.end.p0(i64 4, ptr %19) #9
  call void @llvm.lifetime.end.p0(i64 2, ptr %18) #9
  call void @llvm.lifetime.end.p0(i64 4, ptr %17) #9
  %123 = load i32, ptr %16, align 4
  switch i32 %123, label %131 [
    i32 0, label %124
  ]

124:                                              ; preds = %122
  br label %125

125:                                              ; preds = %124, %65
  %126 = load ptr, ptr %6, align 8
  %127 = load ptr, ptr %7, align 8
  %128 = load ptr, ptr %8, align 8
  call void @dissect_pana_pdu(ptr noundef %126, ptr noundef %127, ptr noundef %128)
  %129 = load ptr, ptr %6, align 8
  %130 = call i32 @tvb_reported_length(ptr noundef %129)
  store i32 %130, ptr %5, align 4
  store i32 1, ptr %16, align 4
  br label %131

131:                                              ; preds = %125, %122, %64, %53, %45, %38, %32, %25
  call void @llvm.lifetime.end.p0(i64 4, ptr %15) #9
  call void @llvm.lifetime.end.p0(i64 2, ptr %14) #9
  call void @llvm.lifetime.end.p0(i64 4, ptr %13) #9
  call void @llvm.lifetime.end.p0(i64 2, ptr %12) #9
  call void @llvm.lifetime.end.p0(i64 4, ptr %11) #9
  call void @llvm.lifetime.end.p0(i64 2, ptr %10) #9
  %132 = load i32, ptr %5, align 4
  ret i32 %132
}