; Function Attrs: null_pointer_is_valid sspstrong uwtable
define internal i32 @dissect_pana(ptr noundef %0, ptr noundef %1, ptr noundef %2, ptr readnone captures(none) %3) #0 {
  %5 = tail call i32 @tvb_captured_length(ptr noundef %0)
  %6 = icmp ult i32 %5, 12
  br i1 %6, label %38, label %7

7:                                                ; preds = %4
  %8 = tail call zeroext i16 @tvb_get_ntohs(ptr noundef %0, i32 noundef 2)
  %9 = zext i16 %8 to i32
  %10 = icmp ult i16 %8, 16
  br i1 %10, label %38, label %11

11:                                               ; preds = %7
  %12 = tail call i32 @tvb_reported_length(ptr noundef %0)
  %.not = icmp eq i32 %12, %9
  br i1 %.not, label %13, label %38

13:                                               ; preds = %11
  %14 = tail call zeroext i16 @tvb_get_ntohs(ptr noundef %0, i32 noundef 0)
  %.not46 = icmp eq i16 %14, 0
  br i1 %.not46, label %15, label %38

15:                                               ; preds = %13
  %16 = tail call zeroext i16 @tvb_get_ntohs(ptr noundef %0, i32 noundef 4)
  %17 = and i16 %16, 1023
  %.not47 = icmp eq i16 %17, 0
  br i1 %.not47, label %18, label %38

18:                                               ; preds = %15
  %19 = tail call zeroext i16 @tvb_get_ntohs(ptr noundef %0, i32 noundef 6)
  %20 = add i16 %19, -6
  %or.cond = icmp ult i16 %20, -5
  br i1 %or.cond, label %38, label %21

21:                                               ; preds = %18
  %22 = add nsw i32 %9, -16
  %.not48 = icmp eq i32 %22, 0
  br i1 %.not48, label %.critedge, label %23

23:                                               ; preds = %21
  %24 = icmp ult i32 %22, 8
  %25 = icmp ult i32 %5, 24
  %or.cond51 = or i1 %25, %24
  br i1 %or.cond51, label %38, label %26

26:                                               ; preds = %23
  %27 = tail call zeroext i16 @tvb_get_ntohs(ptr noundef %0, i32 noundef 16)
  %28 = add i16 %27, -14
  %or.cond5 = icmp ult i16 %28, -13
  br i1 %or.cond5, label %38, label %29

29:                                               ; preds = %26
  %30 = tail call zeroext i16 @tvb_get_ntohs(ptr noundef %0, i32 noundef 18)
  %31 = and i16 %30, 32767
  %.not49 = icmp eq i16 %31, 0
  br i1 %.not49, label %32, label %38

32:                                               ; preds = %29
  %.not50 = icmp eq i16 %30, 0
  %. = select i1 %.not50, i32 8, i32 12
  %33 = tail call zeroext i16 @tvb_get_ntohs(ptr noundef %0, i32 noundef 20)
  %34 = zext i16 %33 to i32
  %35 = add nuw nsw i32 %., %34
  %36 = icmp ugt i32 %35, %22
  br i1 %36, label %38, label %.critedge

.critedge:                                        ; preds = %32, %21
  tail call fastcc void @dissect_pana_pdu(ptr noundef %0, ptr noundef %1, ptr noundef %2)
  %37 = tail call i32 @tvb_reported_length(ptr noundef %0)
  br label %38

38:                                               ; preds = %23, %26, %29, %32, %18, %15, %13, %11, %7, %4, %.critedge
  %.0 = phi i32 [ %37, %.critedge ], [ 0, %4 ], [ 0, %7 ], [ 0, %11 ], [ 0, %13 ], [ 0, %15 ], [ 0, %18 ], [ 0, %32 ], [ 0, %29 ], [ 0, %26 ], [ 0, %23 ]
  ret i32 %.0
}